target datalayout = "e-m:e-p270:32:32-p271:32:32-p272:64:64-i64:64-i128:128-f80:128-n8:16:32:64-S128"
target triple = "x86_64-pc-linux-gnu"

%struct.ForEachState = type { ptr, i32 }
%union.ListCell = type { ptr }
%struct.Query = type { i32, i32, i32, i64, i8, ptr, i32, i8, i8, i8, i8, i8, i8, i8, i8, i8, i8, i8, ptr, ptr, ptr, ptr, ptr, i32, ptr, ptr, i32, ptr, ptr, ptr, ptr, ptr, i8, ptr, ptr, ptr, ptr, ptr, ptr, ptr, i32, ptr, ptr, ptr, ptr, i32, i32 }
%struct.List = type { i32, i32, i32, ptr, [0 x %union.ListCell] }
%struct.RangeTblEntry = type { i32, ptr, ptr, i32, i32, i8, i8, i32, i32, ptr, ptr, i8, i32, i32, ptr, ptr, ptr, ptr, ptr, i8, ptr, ptr, ptr, i32, i8, ptr, ptr, ptr, ptr, double, ptr, i8, i8, ptr }
%struct.PlannerInfo = type { i32, ptr, ptr, i32, ptr, ptr, ptr, ptr, i32, ptr, ptr, ptr, ptr, ptr, ptr, ptr, ptr, i32, ptr, ptr, ptr, ptr, ptr, i8, ptr, ptr, ptr, ptr, ptr, i32, ptr, ptr, ptr, ptr, ptr, ptr, ptr, i32, ptr, ptr, ptr, i32, ptr, ptr, ptr, ptr, ptr, ptr, [8 x ptr], [8 x ptr], ptr, ptr, ptr, ptr, ptr, ptr, ptr, double, double, double, i32, i8, i8, i8, i8, i8, i8, i8, i32, ptr, ptr, i32, i8, i8, i32, ptr, ptr, ptr, ptr, ptr, ptr, i8, ptr }
%struct.PlanRowMark = type { i32, i32, i32, i32, i32, i32, i32, i32, i8 }

; Function Attrs: inlinehint nounwind uwtable
define internal ptr @list_nth_cell(ptr noundef %0, i32 noundef %1) #3 {
  %3 = alloca ptr, align 8
  %4 = alloca i32, align 4
  store ptr %0, ptr %3, align 8
  store i32 %1, ptr %4, align 4
  %5 = load ptr, ptr %3, align 8
  %6 = getelementptr inbounds nuw %struct.List, ptr %5, i32 0, i32 3
  %7 = load ptr, ptr %6, align 8
  %8 = load i32, ptr %4, align 4
  %9 = sext i32 %8 to i64
  %10 = getelementptr inbounds %union.ListCell, ptr %7, i64 %9
  ret ptr %10
}

; Function Attrs: inlinehint nounwind uwtable
define internal ptr @list_nth(ptr noundef %0, i32 noundef %1) #3 {
  %3 = alloca ptr, align 8
  %4 = alloca i32, align 4
  store ptr %0, ptr %3, align 8
  store i32 %1, ptr %4, align 4
  %5 = load ptr, ptr %3, align 8
  %6 = load i32, ptr %4, align 4
  %7 = call ptr @list_nth_cell(ptr noundef %5, i32 noundef %6)
  %8 = load ptr, ptr %7, align 8
  ret ptr %8
}

; Function Attrs: nounwind uwtable
define dso_local void @remove_useless_result_rtes(ptr noundef %0) #0 {
  %2 = alloca ptr, align 8
  %3 = alloca ptr, align 8
  %4 = alloca ptr, align 8
  %5 = alloca %struct.ForEachState, align 8
  %6 = alloca ptr, align 8
  store ptr %0, ptr %2, align 8
  call void @llvm.lifetime.start.p0(i64 8, ptr %3) #8
  store ptr null, ptr %3, align 8
  call void @llvm.lifetime.start.p0(i64 8, ptr %4) #8
  %7 = load ptr, ptr %2, align 8
  %8 = load ptr, ptr %2, align 8
  %9 = getelementptr inbounds nuw %struct.PlannerInfo, ptr %8, i32 0, i32 1
  %10 = load ptr, ptr %9, align 8
  %11 = getelementptr inbounds nuw %struct.Query, ptr %10, i32 0, i32 21
  %12 = load ptr, ptr %11, align 8
  %13 = call ptr @remove_useless_results_recurse(ptr noundef %7, ptr noundef %12, ptr noundef null, ptr noundef %3)
  %14 = load ptr, ptr %2, align 8
  %15 = getelementptr inbounds nuw %struct.PlannerInfo, ptr %14, i32 0, i32 1
  %16 = load ptr, ptr %15, align 8
  %17 = getelementptr inbounds nuw %struct.Query, ptr %16, i32 0, i32 21
  store ptr %13, ptr %17, align 8
  %18 = load ptr, ptr %3, align 8
  %19 = icmp eq ptr %18, null
  br i1 %19, label %35, label %20

20:                                               ; preds = %1
  %21 = load ptr, ptr %2, align 8
  %22 = getelementptr inbounds nuw %struct.PlannerInfo, ptr %21, i32 0, i32 1
  %23 = load ptr, ptr %22, align 8
  %24 = load ptr, ptr %3, align 8
  %25 = call ptr @remove_nulling_relids(ptr noundef %23, ptr noundef %24, ptr noundef null)
  %26 = load ptr, ptr %2, align 8
  %27 = getelementptr inbounds nuw %struct.PlannerInfo, ptr %26, i32 0, i32 1
  store ptr %25, ptr %27, align 8
  %28 = load ptr, ptr %2, align 8
  %29 = getelementptr inbounds nuw %struct.PlannerInfo, ptr %28, i32 0, i32 32
  %30 = load ptr, ptr %29, align 8
  %31 = load ptr, ptr %3, align 8
  %32 = call ptr @remove_nulling_relids(ptr noundef %30, ptr noundef %31, ptr noundef null)
  %33 = load ptr, ptr %2, align 8
  %34 = getelementptr inbounds nuw %struct.PlannerInfo, ptr %33, i32 0, i32 32
  store ptr %32, ptr %34, align 8
  br label %35

35:                                               ; preds = %20, %1
  call void @llvm.lifetime.start.p0(i64 16, ptr %5) #8
  %36 = getelementptr inbounds nuw %struct.ForEachState, ptr %5, i32 0, i32 0
  %37 = load ptr, ptr %2, align 8
  %38 = getelementptr inbounds nuw %struct.PlannerInfo, ptr %37, i32 0, i32 34
  %39 = load ptr, ptr %38, align 8
  store ptr %39, ptr %36, align 8
  %40 = getelementptr inbounds nuw %struct.ForEachState, ptr %5, i32 0, i32 1
  store i32 0, ptr %40, align 8
  %41 = getelementptr i8, ptr %5, i64 12
  call void @llvm.memset.p0.i64(ptr align 4 %41, i8 0, i64 4, i1 false)
  br label %42

42:                                               ; preds = %96, %35
  %43 = getelementptr inbounds nuw %struct.ForEachState, ptr %5, i32 0, i32 0
  %44 = load ptr, ptr %43, align 8
  %45 = icmp ne ptr %44, null
  br i1 %45, label %46, label %63

46:                                               ; preds = %42
  %47 = getelementptr inbounds nuw %struct.ForEachState, ptr %5, i32 0, i32 1
  %48 = load i32, ptr %47, align 8
  %49 = getelementptr inbounds nuw %struct.ForEachState, ptr %5, i32 0, i32 0
  %50 = load ptr, ptr %49, align 8
  %51 = getelementptr inbounds nuw %struct.List, ptr %50, i32 0, i32 1
  %52 = load i32, ptr %51, align 4
  %53 = icmp slt i32 %48, %52
  br i1 %53, label %54, label %63

54:                                               ; preds = %46
  %55 = getelementptr inbounds nuw %struct.ForEachState, ptr %5, i32 0, i32 0
  %56 = load ptr, ptr %55, align 8
  %57 = getelementptr inbounds nuw %struct.List, ptr %56, i32 0, i32 3
  %58 = load ptr, ptr %57, align 8
  %59 = getelementptr inbounds nuw %struct.ForEachState, ptr %5, i32 0, i32 1
  %60 = load i32, ptr %59, align 8
  %61 = sext i32 %60 to i64
  %62 = getelementptr inbounds %union.ListCell, ptr %58, i64 %61
  store ptr %62, ptr %4, align 8
  br label %64

63:                                               ; preds = %46, %42
  store ptr null, ptr %4, align 8
  br label %64

64:                                               ; preds = %63, %54
  %65 = phi i32 [ 1, %54 ], [ 0, %63 ]
  %66 = icmp ne i32 %65, 0
  br i1 %66, label %68, label %67

67:                                               ; preds = %64
  call void @llvm.lifetime.end.p0(i64 16, ptr %5) #8
  br label %100

68:                                               ; preds = %64
  call void @llvm.lifetime.start.p0(i64 8, ptr %6) #8
  %69 = load ptr, ptr %4, align 8
  %70 = load ptr, ptr %69, align 8
  store ptr %70, ptr %6, align 8
  %71 = load ptr, ptr %2, align 8
  %72 = getelementptr inbounds nuw %struct.PlannerInfo, ptr %71, i32 0, i32 1
  %73 = load ptr, ptr %72, align 8
  %74 = getelementptr inbounds nuw %struct.Query, ptr %73, i32 0, i32 19
  %75 = load ptr, ptr %74, align 8
  %76 = load ptr, ptr %6, align 8
  %77 = getelementptr inbounds nuw %struct.PlanRowMark, ptr %76, i32 0, i32 1
  %78 = load i32, ptr %77, align 4
  %79 = sub i32 %78, 1
  %80 = call ptr @list_nth(ptr noundef %75, i32 noundef %79)
  %81 = getelementptr inbounds nuw %struct.RangeTblEntry, ptr %80, i32 0, i32 3
  %82 = load i32, ptr %81, align 8
  %83 = icmp eq i32 %82, 8
  br i1 %83, label %84, label %95

84:                                               ; preds = %68
  %85 = load ptr, ptr %2, align 8
  %86 = getelementptr inbounds nuw %struct.PlannerInfo, ptr %85, i32 0, i32 34
  %87 = load ptr, ptr %86, align 8
  %88 = getelementptr inbounds nuw %struct.ForEachState, ptr %5, i32 0, i32 1
  %89 = load i32, ptr %88, align 8
  %90 = add i32 %89, -1
  store i32 %90, ptr %88, align 8
  %91 = call ptr @list_delete_nth_cell(ptr noundef %87, i32 noundef %89)
  %92 = getelementptr inbounds nuw %struct.ForEachState, ptr %5, i32 0, i32 0
  store ptr %91, ptr %92, align 8
  %93 = load ptr, ptr %2, align 8
  %94 = getelementptr inbounds nuw %struct.PlannerInfo, ptr %93, i32 0, i32 34
  store ptr %91, ptr %94, align 8
  br label %95

95:                                               ; preds = %84, %68
  call void @llvm.lifetime.end.p0(i64 8, ptr %6) #8
  br label %96

96:                                               ; preds = %95
  %97 = getelementptr inbounds nuw %struct.ForEachState, ptr %5, i32 0, i32 1
  %98 = load i32, ptr %97, align 8
  %99 = add i32 %98, 1
  store i32 %99, ptr %97, align 8
  br label %42, !llvm.loop !18

100:                                              ; preds = %67
  call void @llvm.lifetime.end.p0(i64 8, ptr %4) #8
  call void @llvm.lifetime.end.p0(i64 8, ptr %3) #8
  ret void
}