; Function Attrs: nounwind uwtable
define dso_local void @remove_useless_result_rtes(ptr noundef %0) local_unnamed_addr #0 {
  %2 = alloca ptr, align 8
  call void @llvm.lifetime.start.p0(i64 8, ptr nonnull %2) #7
  store ptr null, ptr %2, align 8
  %3 = getelementptr inbounds nuw i8, ptr %0, i64 8
  %4 = load ptr, ptr %3, align 8
  %5 = getelementptr inbounds nuw i8, ptr %4, i64 80
  %6 = load ptr, ptr %5, align 8
  %7 = call fastcc ptr @remove_useless_results_recurse(ptr noundef %0, ptr noundef %6, ptr noundef null, ptr noundef %2)
  %8 = load ptr, ptr %3, align 8
  %9 = getelementptr inbounds nuw i8, ptr %8, i64 80
  store ptr %7, ptr %9, align 8
  %10 = load ptr, ptr %2, align 8
  %11 = icmp eq ptr %10, null
  br i1 %11, label %19, label %12

12:                                               ; preds = %1
  %13 = load ptr, ptr %3, align 8
  %14 = call ptr @remove_nulling_relids(ptr noundef %13, ptr noundef nonnull %10, ptr noundef null) #7
  store ptr %14, ptr %3, align 8
  %15 = getelementptr inbounds nuw i8, ptr %0, i64 256
  %16 = load ptr, ptr %15, align 8
  %17 = load ptr, ptr %2, align 8
  %18 = call ptr @remove_nulling_relids(ptr noundef %16, ptr noundef %17, ptr noundef null) #7
  store ptr %18, ptr %15, align 8
  br label %19

19:                                               ; preds = %12, %1
  %20 = getelementptr inbounds nuw i8, ptr %0, i64 272
  %21 = load ptr, ptr %20, align 8
  %.not22 = icmp eq ptr %21, null
  br i1 %.not22, label %._crit_edge, label %.lr.ph

.lr.ph:                                           ; preds = %19, %48
  %22 = phi ptr [ %.sroa.0.1, %48 ], [ %21, %19 ]
  %.sroa.7.023 = phi i32 [ %49, %48 ], [ 0, %19 ]
  %23 = getelementptr inbounds nuw i8, ptr %22, i64 4
  %24 = load i32, ptr %23, align 4
  %25 = icmp slt i32 %.sroa.7.023, %24
  br i1 %25, label %26, label %._crit_edge

._crit_edge:                                      ; preds = %48, %.lr.ph, %19
  call void @llvm.lifetime.end.p0(i64 8, ptr nonnull %2) #7
  ret void

26:                                               ; preds = %.lr.ph
  %27 = getelementptr inbounds nuw i8, ptr %22, i64 16
  %28 = load ptr, ptr %27, align 8
  %29 = sext i32 %.sroa.7.023 to i64
  %30 = getelementptr inbounds %union.ListCell, ptr %28, i64 %29
  %31 = load ptr, ptr %30, align 8
  %32 = load ptr, ptr %3, align 8
  %33 = getelementptr inbounds nuw i8, ptr %32, i64 64
  %34 = load ptr, ptr %33, align 8
  %35 = getelementptr inbounds nuw i8, ptr %31, i64 4
  %36 = load i32, ptr %35, align 4
  %37 = add i32 %36, -1
  %38 = getelementptr i8, ptr %34, i64 16
  %.val = load ptr, ptr %38, align 8
  %39 = sext i32 %37 to i64
  %40 = getelementptr inbounds %union.ListCell, ptr %.val, i64 %39
  %41 = load ptr, ptr %40, align 8
  %42 = getelementptr inbounds nuw i8, ptr %41, i64 24
  %43 = load i32, ptr %42, align 8
  %44 = icmp eq i32 %43, 8
  br i1 %44, label %45, label %48

45:                                               ; preds = %26
  %46 = add i32 %.sroa.7.023, -1
  %47 = call ptr @list_delete_nth_cell(ptr noundef nonnull %22, i32 noundef %.sroa.7.023) #7
  store ptr %47, ptr %20, align 8
  br label %48

48:                                               ; preds = %45, %26
  %.sroa.7.1 = phi i32 [ %46, %45 ], [ %.sroa.7.023, %26 ]
  %.sroa.0.1 = phi ptr [ %47, %45 ], [ %22, %26 ]
  %49 = add i32 %.sroa.7.1, 1
  %.not = icmp eq ptr %.sroa.0.1, null
  br i1 %.not, label %._crit_edge, label %.lr.ph, !llvm.loop !11
}